target datalayout = "e-m:e-p270:32:32-p271:32:32-p272:64:64-i64:64-i128:128-f80:128-n8:16:32:64-S128"
target triple = "x86_64-pc-linux-gnu"

%struct.ma_log = type { [4 x %struct.ma_log_callback], i32, %struct.ma_allocation_callbacks, %union.pthread_mutex_t }
%struct.ma_log_callback = type { ptr, ptr }
%struct.ma_allocation_callbacks = type { ptr, ptr, ptr, ptr }
%union.pthread_mutex_t = type { %struct.__pthread_mutex_s }
%struct.__pthread_mutex_s = type { i32, i32, i32, i32, i32, i16, i16, %struct.__pthread_internal_list }
%struct.__pthread_internal_list = type { ptr, ptr }

; Function Attrs: nounwind uwtable
define internal void @ma_mutex_unlock__posix(ptr noundef %0) #0 {
  %2 = alloca ptr, align 8
  store ptr %0, ptr %2, align 8
  %3 = load ptr, ptr %2, align 8
  %4 = call i32 @pthread_mutex_unlock(ptr noundef %3) #21
  ret void
}

; Function Attrs: nounwind uwtable
define internal void @ma_mutex_lock__posix(ptr noundef %0) #0 {
  %2 = alloca ptr, align 8
  store ptr %0, ptr %2, align 8
  %3 = load ptr, ptr %2, align 8
  %4 = call i32 @pthread_mutex_lock(ptr noundef %3) #21
  ret void
}

; Function Attrs: nounwind uwtable
define hidden void @ma_mutex_unlock(ptr noundef %0) #0 {
  %2 = alloca ptr, align 8
  store ptr %0, ptr %2, align 8
  %3 = load ptr, ptr %2, align 8
  %4 = icmp eq ptr %3, null
  br i1 %4, label %5, label %6

5:                                                ; preds = %1
  br label %8

6:                                                ; preds = %1
  %7 = load ptr, ptr %2, align 8
  call void @ma_mutex_unlock__posix(ptr noundef %7)
  br label %8

8:                                                ; preds = %6, %5
  ret void
}

; Function Attrs: nounwind uwtable
define hidden void @ma_mutex_lock(ptr noundef %0) #0 {
  %2 = alloca ptr, align 8
  store ptr %0, ptr %2, align 8
  %3 = load ptr, ptr %2, align 8
  %4 = icmp eq ptr %3, null
  br i1 %4, label %5, label %6

5:                                                ; preds = %1
  br label %8

6:                                                ; preds = %1
  %7 = load ptr, ptr %2, align 8
  call void @ma_mutex_lock__posix(ptr noundef %7)
  br label %8

8:                                                ; preds = %6, %5
  ret void
}

; Function Attrs: nounwind uwtable
define internal void @ma_log_unlock(ptr noundef %0) #0 {
  %2 = alloca ptr, align 8
  store ptr %0, ptr %2, align 8
  %3 = load ptr, ptr %2, align 8
  %4 = getelementptr inbounds nuw %struct.ma_log, ptr %3, i32 0, i32 3
  call void @ma_mutex_unlock(ptr noundef %4)
  ret void
}

; Function Attrs: nounwind uwtable
define internal void @ma_log_lock(ptr noundef %0) #0 {
  %2 = alloca ptr, align 8
  store ptr %0, ptr %2, align 8
  %3 = load ptr, ptr %2, align 8
  %4 = getelementptr inbounds nuw %struct.ma_log, ptr %3, i32 0, i32 3
  call void @ma_mutex_lock(ptr noundef %4)
  ret void
}

; Function Attrs: nounwind uwtable
define hidden i32 @ma_log_unregister_callback(ptr noundef %0, ptr %1, ptr %2) #0 {
  %4 = alloca i32, align 4
  %5 = alloca %struct.ma_log_callback, align 8
  %6 = alloca ptr, align 8
  %7 = alloca i32, align 4
  %8 = alloca i32, align 4
  %9 = getelementptr inbounds nuw { ptr, ptr }, ptr %5, i32 0, i32 0
  store ptr %1, ptr %9, align 8
  %10 = getelementptr inbounds nuw { ptr, ptr }, ptr %5, i32 0, i32 1
  store ptr %2, ptr %10, align 8
  store ptr %0, ptr %6, align 8
  %11 = load ptr, ptr %6, align 8
  %12 = icmp eq ptr %11, null
  br i1 %12, label %13, label %14

13:                                               ; preds = %3
  store i32 -2, ptr %4, align 4
  br label %68

14:                                               ; preds = %3
  %15 = load ptr, ptr %6, align 8
  call void @ma_log_lock(ptr noundef %15)
  call void @llvm.lifetime.start.p0(i64 4, ptr %7) #21
  store i32 0, ptr %7, align 4
  br label %16

16:                                               ; preds = %65, %14
  %17 = load i32, ptr %7, align 4
  %18 = load ptr, ptr %6, align 8
  %19 = getelementptr inbounds nuw %struct.ma_log, ptr %18, i32 0, i32 1
  %20 = load i32, ptr %19, align 8
  %21 = icmp ult i32 %17, %20
  br i1 %21, label %22, label %66

22:                                               ; preds = %16
  %23 = load ptr, ptr %6, align 8
  %24 = getelementptr inbounds nuw %struct.ma_log, ptr %23, i32 0, i32 0
  %25 = load i32, ptr %7, align 4
  %26 = zext i32 %25 to i64
  %27 = getelementptr inbounds nuw [4 x %struct.ma_log_callback], ptr %24, i64 0, i64 %26
  %28 = getelementptr inbounds nuw %struct.ma_log_callback, ptr %27, i32 0, i32 0
  %29 = load ptr, ptr %28, align 8
  %30 = getelementptr inbounds nuw %struct.ma_log_callback, ptr %5, i32 0, i32 0
  %31 = load ptr, ptr %30, align 8
  %32 = icmp eq ptr %29, %31
  br i1 %32, label %33, label %62

33:                                               ; preds = %22
  call void @llvm.lifetime.start.p0(i64 4, ptr %8) #21
  %34 = load i32, ptr %7, align 4
  store i32 %34, ptr %8, align 4
  br label %35

35:                                               ; preds = %54, %33
  %36 = load i32, ptr %8, align 4
  %37 = load ptr, ptr %6, align 8
  %38 = getelementptr inbounds nuw %struct.ma_log, ptr %37, i32 0, i32 1
  %39 = load i32, ptr %38, align 8
  %40 = sub i32 %39, 1
  %41 = icmp ult i32 %36, %40
  br i1 %41, label %42, label %57

42:                                               ; preds = %35
  %43 = load ptr, ptr %6, align 8
  %44 = getelementptr inbounds nuw %struct.ma_log, ptr %43, i32 0, i32 0
  %45 = load i32, ptr %8, align 4
  %46 = zext i32 %45 to i64
  %47 = getelementptr inbounds nuw [4 x %struct.ma_log_callback], ptr %44, i64 0, i64 %46
  %48 = load ptr, ptr %6, align 8
  %49 = getelementptr inbounds nuw %struct.ma_log, ptr %48, i32 0, i32 0
  %50 = load i32, ptr %8, align 4
  %51 = add i32 %50, 1
  %52 = zext i32 %51 to i64
  %53 = getelementptr inbounds nuw [4 x %struct.ma_log_callback], ptr %49, i64 0, i64 %52
  call void @llvm.memcpy.p0.p0.i64(ptr align 8 %47, ptr align 8 %53, i64 16, i1 false)
  br label %54

54:                                               ; preds = %42
  %55 = load i32, ptr %8, align 4
  %56 = add i32 %55, 1
  store i32 %56, ptr %8, align 4
  br label %35

57:                                               ; preds = %35
  %58 = load ptr, ptr %6, align 8
  %59 = getelementptr inbounds nuw %struct.ma_log, ptr %58, i32 0, i32 1
  %60 = load i32, ptr %59, align 8
  %61 = sub i32 %60, 1
  store i32 %61, ptr %59, align 8
  call void @llvm.lifetime.end.p0(i64 4, ptr %8) #21
  br label %65

62:                                               ; preds = %22
  %63 = load i32, ptr %7, align 4
  %64 = add i32 %63, 1
  store i32 %64, ptr %7, align 4
  br label %65

65:                                               ; preds = %62, %57
  br label %16

66:                                               ; preds = %16
  call void @llvm.lifetime.end.p0(i64 4, ptr %7) #21
  %67 = load ptr, ptr %6, align 8
  call void @ma_log_unlock(ptr noundef %67)
  store i32 0, ptr %4, align 4
  br label %68

68:                                               ; preds = %66, %13
  %69 = load i32, ptr %4, align 4
  ret i32 %69
}