; Function Attrs: nounwind uwtable
define hidden range(i32 -2, 1) i32 @ma_log_unregister_callback(ptr noundef %0, ptr readnone captures(address) %1, ptr readnone captures(none) %2) local_unnamed_addr #7 {
  %4 = icmp eq ptr %0, null
  br i1 %4, label %29, label %5

5:                                                ; preds = %3
  %6 = getelementptr inbounds nuw i8, ptr %0, i64 104
  %7 = tail call i32 @pthread_mutex_lock(ptr noundef nonnull %6) #72
  %8 = getelementptr inbounds nuw i8, ptr %0, i64 64
  %9 = load i32, ptr %8, align 8
  %.not = icmp eq i32 %9, 0
  br i1 %.not, label %._crit_edge25, label %.lr.ph24

.lr.ph24:                                         ; preds = %5, %25
  %10 = phi i32 [ %26, %25 ], [ %9, %5 ]
  %.01722 = phi i32 [ %.1, %25 ], [ 0, %5 ]
  %11 = zext i32 %.01722 to i64
  %12 = getelementptr inbounds nuw [4 x %struct.ma_log_callback], ptr %0, i64 0, i64 %11
  %13 = load ptr, ptr %12, align 8
  %14 = icmp eq ptr %13, %1
  br i1 %14, label %.preheader, label %23

.preheader:                                       ; preds = %.lr.ph24
  %15 = add i32 %10, -1
  %16 = icmp ult i32 %.01722, %15
  br i1 %16, label %.lr.ph, label %._crit_edge

.lr.ph:                                           ; preds = %.preheader, %.lr.ph
  %indvars.iv = phi i64 [ %indvars.iv.next, %.lr.ph ], [ %11, %.preheader ]
  %17 = getelementptr inbounds nuw [4 x %struct.ma_log_callback], ptr %0, i64 0, i64 %indvars.iv
  %indvars.iv.next = add nuw nsw i64 %indvars.iv, 1
  %18 = getelementptr inbounds nuw [4 x %struct.ma_log_callback], ptr %0, i64 0, i64 %indvars.iv.next
  tail call void @llvm.memcpy.p0.p0.i64(ptr noundef nonnull align 8 dereferenceable(16) %17, ptr noundef nonnull align 8 dereferenceable(16) %18, i64 16, i1 false)
  %19 = load i32, ptr %8, align 8
  %20 = add i32 %19, -1
  %21 = zext i32 %20 to i64
  %22 = icmp samesign ult i64 %indvars.iv.next, %21
  br i1 %22, label %.lr.ph, label %._crit_edge

._crit_edge:                                      ; preds = %.lr.ph, %.preheader
  %.lcssa = phi i32 [ %15, %.preheader ], [ %20, %.lr.ph ]
  store i32 %.lcssa, ptr %8, align 8
  br label %25

23:                                               ; preds = %.lr.ph24
  %24 = add nuw i32 %.01722, 1
  br label %25

25:                                               ; preds = %23, %._crit_edge
  %26 = phi i32 [ %.lcssa, %._crit_edge ], [ %10, %23 ]
  %.1 = phi i32 [ %.01722, %._crit_edge ], [ %24, %23 ]
  %27 = icmp ult i32 %.1, %26
  br i1 %27, label %.lr.ph24, label %._crit_edge25

._crit_edge25:                                    ; preds = %25, %5
  %28 = tail call i32 @pthread_mutex_unlock(ptr noundef nonnull %6) #72
  br label %29

29:                                               ; preds = %3, %._crit_edge25
  %.018 = phi i32 [ 0, %._crit_edge25 ], [ -2, %3 ]
  ret i32 %.018
}